target datalayout = "e-m:e-p270:32:32-p271:32:32-p272:64:64-i64:64-i128:128-f80:128-n8:16:32:64-S128"
target triple = "x86_64-pc-linux-gnu"

%"class.icu_77::UnicodeString" = type { %"class.icu_77::Replaceable", %"union.icu_77::UnicodeString::StackBufferOrFields" }
%"class.icu_77::Replaceable" = type { %"class.icu_77::UObject" }
%"class.icu_77::UObject" = type { ptr }
%"union.icu_77::UnicodeString::StackBufferOrFields" = type { %struct.anon.1, [32 x i8] }
%struct.anon.1 = type { i16, i32, i32, ptr }

; Function Attrs: inlinehint mustprogress nounwind uwtable
define linkonce_odr noundef i32 @_ZNK6icu_7713UnicodeString14getShortLengthEv(ptr noundef nonnull align 8 dereferenceable(64) %0) #2 comdat align 2 {
  %2 = alloca ptr, align 8
  store ptr %0, ptr %2, align 8, !tbaa !80
  %3 = load ptr, ptr %2, align 8
  %4 = getelementptr inbounds nuw %"class.icu_77::UnicodeString", ptr %3, i32 0, i32 1
  %5 = getelementptr inbounds nuw %struct.anon.1, ptr %4, i32 0, i32 0
  %6 = load i16, ptr %5, align 8, !tbaa !42
  %7 = sext i16 %6 to i32
  %8 = ashr i32 %7, 5
  ret i32 %8
}

; Function Attrs: inlinehint mustprogress nounwind uwtable
define linkonce_odr noundef signext i8 @_ZNK6icu_7713UnicodeString14hasShortLengthEv(ptr noundef nonnull align 8 dereferenceable(64) %0) #2 comdat align 2 {
  %2 = alloca ptr, align 8
  store ptr %0, ptr %2, align 8, !tbaa !80
  %3 = load ptr, ptr %2, align 8
  %4 = getelementptr inbounds nuw %"class.icu_77::UnicodeString", ptr %3, i32 0, i32 1
  %5 = getelementptr inbounds nuw %struct.anon.1, ptr %4, i32 0, i32 0
  %6 = load i16, ptr %5, align 8, !tbaa !42
  %7 = sext i16 %6 to i32
  %8 = icmp sge i32 %7, 0
  %9 = zext i1 %8 to i8
  ret i8 %9
}

; Function Attrs: inlinehint mustprogress uwtable
define linkonce_odr noundef i32 @_ZNK6icu_7713UnicodeString7indexOfEiii(ptr noundef nonnull align 8 dereferenceable(64) %0, i32 noundef %1, i32 noundef %2, i32 noundef %3) #3 comdat align 2 {
  %5 = alloca ptr, align 8
  %6 = alloca i32, align 4
  %7 = alloca i32, align 4
  %8 = alloca i32, align 4
  store ptr %0, ptr %5, align 8, !tbaa !80
  store i32 %1, ptr %6, align 4, !tbaa !14
  store i32 %2, ptr %7, align 4, !tbaa !14
  store i32 %3, ptr %8, align 4, !tbaa !14
  %9 = load ptr, ptr %5, align 8
  %10 = load i32, ptr %6, align 4, !tbaa !14
  %11 = load i32, ptr %7, align 4, !tbaa !14
  %12 = load i32, ptr %8, align 4, !tbaa !14
  %13 = call noundef i32 @_ZNK6icu_7713UnicodeString9doIndexOfEiii(ptr noundef nonnull align 8 dereferenceable(64) %9, i32 noundef %10, i32 noundef %11, i32 noundef %12)
  ret i32 %13
}

; Function Attrs: inlinehint mustprogress uwtable
define linkonce_odr noundef i32 @_ZNK6icu_7713UnicodeString6lengthEv(ptr noundef nonnull align 8 dereferenceable(64) %0) #3 comdat align 2 {
  %2 = alloca ptr, align 8
  store ptr %0, ptr %2, align 8, !tbaa !80
  %3 = load ptr, ptr %2, align 8
  %4 = call noundef signext i8 @_ZNK6icu_7713UnicodeString14hasShortLengthEv(ptr noundef nonnull align 8 dereferenceable(64) %3)
  %5 = icmp ne i8 %4, 0
  br i1 %5, label %6, label %8

6:                                                ; preds = %1
  %7 = call noundef i32 @_ZNK6icu_7713UnicodeString14getShortLengthEv(ptr noundef nonnull align 8 dereferenceable(64) %3)
  br label %12

8:                                                ; preds = %1
  %9 = getelementptr inbounds nuw %"class.icu_77::UnicodeString", ptr %3, i32 0, i32 1
  %10 = getelementptr inbounds nuw %struct.anon.1, ptr %9, i32 0, i32 1
  %11 = load i32, ptr %10, align 4, !tbaa !42
  br label %12

12:                                               ; preds = %8, %6
  %13 = phi i32 [ %7, %6 ], [ %11, %8 ]
  ret i32 %13
}

; Function Attrs: inlinehint mustprogress uwtable
define linkonce_odr noundef i32 @_ZNK6icu_7713UnicodeString7indexOfEi(ptr noundef nonnull align 8 dereferenceable(64) %0, i32 noundef %1) #3 comdat align 2 {
  %3 = alloca ptr, align 8
  %4 = alloca i32, align 4
  store ptr %0, ptr %3, align 8, !tbaa !80
  store i32 %1, ptr %4, align 4, !tbaa !14
  %5 = load ptr, ptr %3, align 8
  %6 = load i32, ptr %4, align 4, !tbaa !14
  %7 = call noundef i32 @_ZNK6icu_7713UnicodeString6lengthEv(ptr noundef nonnull align 8 dereferenceable(64) %5)
  %8 = call noundef i32 @_ZNK6icu_7713UnicodeString7indexOfEiii(ptr noundef nonnull align 8 dereferenceable(64) %5, i32 noundef %6, i32 noundef 0, i32 noundef %7)
  ret i32 %8
}

; Function Attrs: mustprogress uwtable
define noundef i32 @_ZN6icu_776number4impl15DecimalQuantity23getVisibleFractionCountENS_13UnicodeStringE(ptr noundef %0) #1 align 2 {
  %2 = alloca i32, align 4
  %3 = alloca ptr, align 8
  %4 = alloca i32, align 4
  %5 = alloca i32, align 4
  store ptr %0, ptr %3, align 8, !tbaa !80
  call void @llvm.lifetime.start.p0(i64 4, ptr %4) #14
  %6 = call noundef i32 @_ZNK6icu_7713UnicodeString7indexOfEi(ptr noundef nonnull align 8 dereferenceable(64) %0, i32 noundef 46)
  %7 = add nsw i32 %6, 1
  store i32 %7, ptr %4, align 4, !tbaa !14
  %8 = load i32, ptr %4, align 4, !tbaa !14
  %9 = icmp eq i32 %8, 0
  br i1 %9, label %10, label %11

10:                                               ; preds = %1
  store i32 0, ptr %2, align 4
  store i32 1, ptr %5, align 4
  br label %15

11:                                               ; preds = %1
  %12 = call noundef i32 @_ZNK6icu_7713UnicodeString6lengthEv(ptr noundef nonnull align 8 dereferenceable(64) %0)
  %13 = load i32, ptr %4, align 4, !tbaa !14
  %14 = sub nsw i32 %12, %13
  store i32 %14, ptr %2, align 4
  store i32 1, ptr %5, align 4
  br label %15

15:                                               ; preds = %11, %10
  call void @llvm.lifetime.end.p0(i64 4, ptr %4) #14
  %16 = load i32, ptr %2, align 4
  ret i32 %16
}