; Function Attrs: mustprogress uwtable
define noundef i32 @_ZN6icu_776number4impl15DecimalQuantity23getVisibleFractionCountENS_13UnicodeStringE(ptr noundef nonnull %0) local_unnamed_addr #1 align 2 {
  %2 = getelementptr inbounds nuw i8, ptr %0, i64 8
  %3 = load i16, ptr %2, align 8, !tbaa !26
  %4 = icmp slt i16 %3, 0
  %5 = ashr i16 %3, 5
  %6 = sext i16 %5 to i32
  %7 = getelementptr inbounds nuw i8, ptr %0, i64 12
  %8 = load i32, ptr %7, align 4
  %9 = select i1 %4, i32 %8, i32 %6
  %10 = tail call noundef i32 @_ZNK6icu_7713UnicodeString9doIndexOfEiii(ptr noundef nonnull align 8 dereferenceable(64) %0, i32 noundef 46, i32 noundef 0, i32 noundef %9)
  %11 = add nsw i32 %10, 1
  %12 = icmp eq i32 %11, 0
  br i1 %12, label %21, label %13

13:                                               ; preds = %1
  %14 = load i16, ptr %2, align 8, !tbaa !26
  %15 = icmp slt i16 %14, 0
  %16 = ashr i16 %14, 5
  %17 = sext i16 %16 to i32
  %18 = load i32, ptr %7, align 4
  %19 = select i1 %15, i32 %18, i32 %17
  %20 = sub nsw i32 %19, %11
  br label %21

21:                                               ; preds = %1, %13
  %.0 = phi i32 [ %20, %13 ], [ 0, %1 ]
  ret i32 %.0
}